; Function Attrs: mustprogress nounwind uwtable
define dso_local noundef zeroext i1 @_ZNK4llvm6MCExpr18evaluateAsAbsoluteERlRKNS_11MCAssemblerERKNS_8DenseMapIPKNS_9MCSectionEmNS_12DenseMapInfoIS8_vEENS_6detail12DenseMapPairIS8_mEEEE(ptr noundef nonnull align 8 dereferenceable(16) %0, ptr nocapture noundef nonnull writeonly align 8 dereferenceable(8) %1, ptr noundef nonnull align 8 dereferenceable(372) %2, ptr noundef nonnull align 8 dereferenceable(20) %3) local_unnamed_addr #0 align 2 {
  %5 = alloca %"class.llvm::MCValue", align 8
  call void @llvm.lifetime.start.p0(i64 32, ptr nonnull %5)
  call void @llvm.memset.p0.i64(ptr noundef nonnull align 8 dereferenceable(28) %5, i8 0, i64 28, i1 false)
  %6 = load i8, ptr %0, align 8
  %.not.i = icmp eq i8 %6, 1
  br i1 %.not.i, label %7, label %10

7:                                                ; preds = %4
  %8 = getelementptr inbounds nuw i8, ptr %0, i64 16
  %9 = load i64, ptr %8, align 8
  store i64 %9, ptr %1, align 8
  br label %_ZNK4llvm6MCExpr18evaluateAsAbsoluteERlPKNS_11MCAssemblerEPKNS_8DenseMapIPKNS_9MCSectionEmNS_12DenseMapInfoIS8_vEENS_6detail12DenseMapPairIS8_mEEEEb.exit

10:                                               ; preds = %4
  %11 = call noundef zeroext i1 @_ZNK4llvm6MCExpr25evaluateAsRelocatableImplERNS_7MCValueEPKNS_11MCAssemblerEPKNS_7MCFixupEPKNS_8DenseMapIPKNS_9MCSectionEmNS_12DenseMapInfoISC_vEENS_6detail12DenseMapPairISC_mEEEEb(ptr noundef nonnull align 8 dereferenceable(16) %0, ptr noundef nonnull align 8 dereferenceable(28) %5, ptr noundef nonnull %2, ptr noundef null, ptr noundef nonnull %3, i1 noundef zeroext true)
  %12 = getelementptr inbounds nuw i8, ptr %5, i64 16
  %13 = load i64, ptr %12, align 8
  store i64 %13, ptr %1, align 8
  br i1 %11, label %14, label %_ZNK4llvm6MCExpr18evaluateAsAbsoluteERlPKNS_11MCAssemblerEPKNS_8DenseMapIPKNS_9MCSectionEmNS_12DenseMapInfoIS8_vEENS_6detail12DenseMapPairIS8_mEEEEb.exit

14:                                               ; preds = %10
  %15 = load ptr, ptr %5, align 8
  %.not.i.i = icmp eq ptr %15, null
  %16 = getelementptr inbounds nuw i8, ptr %5, i64 8
  %17 = load ptr, ptr %16, align 8
  %.not1.i.i = icmp eq ptr %17, null
  %18 = select i1 %.not.i.i, i1 %.not1.i.i, i1 false
  br label %_ZNK4llvm6MCExpr18evaluateAsAbsoluteERlPKNS_11MCAssemblerEPKNS_8DenseMapIPKNS_9MCSectionEmNS_12DenseMapInfoIS8_vEENS_6detail12DenseMapPairIS8_mEEEEb.exit

_ZNK4llvm6MCExpr18evaluateAsAbsoluteERlPKNS_11MCAssemblerEPKNS_8DenseMapIPKNS_9MCSectionEmNS_12DenseMapInfoIS8_vEENS_6detail12DenseMapPairIS8_mEEEEb.exit: ; preds = %7, %10, %14
  %.0.i = phi i1 [ true, %7 ], [ false, %10 ], [ %18, %14 ]
  call void @llvm.lifetime.end.p0(i64 32, ptr nonnull %5)
  ret i1 %.0.i
}